; Function Attrs: nounwind sspstrong uwtable
define internal i64 @time_eql(i64 noundef %0, i64 noundef %1) #1 {
  %3 = tail call ptr @rb_check_typeddata(i64 noundef %0, ptr noundef nonnull @time_data_type) #21
  %4 = getelementptr inbounds nuw i8, ptr %3, i64 40
  %5 = load i64, ptr %4, align 8
  %6 = and i64 %5, 61572651155456
  %.not.i = icmp eq i64 %6, 26388279066624
  br i1 %.not.i, label %7, label %get_timeval.exit

7:                                                ; preds = %2
  %8 = load i64, ptr @rb_eTypeError, align 8, !tbaa !11
  %9 = tail call i64 @rb_obj_class(i64 noundef %0) #21
  tail call void (i64, ptr, ...) @rb_raise(i64 noundef %8, ptr noundef nonnull @.str.92, i64 noundef %9) #22
  unreachable

get_timeval.exit:                                 ; preds = %2
  %10 = tail call i32 @rb_typeddata_is_kind_of(i64 noundef %1, ptr noundef nonnull @time_data_type) #21
  %.not = icmp eq i32 %10, 0
  br i1 %.not, label %22, label %11

11:                                               ; preds = %get_timeval.exit
  %12 = tail call ptr @rb_check_typeddata(i64 noundef %1, ptr noundef nonnull @time_data_type) #21
  %13 = getelementptr inbounds nuw i8, ptr %12, i64 40
  %14 = load i64, ptr %13, align 8
  %15 = and i64 %14, 61572651155456
  %.not.i5 = icmp eq i64 %15, 26388279066624
  br i1 %.not.i5, label %16, label %get_timeval.exit6

16:                                               ; preds = %11
  %17 = load i64, ptr @rb_eTypeError, align 8, !tbaa !11
  %18 = tail call i64 @rb_obj_class(i64 noundef %1) #21
  tail call void (i64, ptr, ...) @rb_raise(i64 noundef %17, ptr noundef nonnull @.str.92, i64 noundef %18) #22
  unreachable

get_timeval.exit6:                                ; preds = %11
  %19 = load i64, ptr %3, align 8, !tbaa !25
  %20 = load i64, ptr %12, align 8, !tbaa !25
  %21 = tail call i64 @rb_equal(i64 noundef %19, i64 noundef %20) #21
  br label %22

22:                                               ; preds = %get_timeval.exit, %get_timeval.exit6
  %.0 = phi i64 [ %21, %get_timeval.exit6 ], [ 0, %get_timeval.exit ]
  ret i64 %.0
}